; Function Attrs: nounwind uwtable
define void @glfwSetTime(double noundef %0) local_unnamed_addr #0 {
  %2 = load i32, ptr @_glfw, align 8, !tbaa !170
  %.not = icmp eq i32 %2, 0
  br i1 %.not, label %3, label %4

3:                                                ; preds = %1
  tail call void (i32, ptr, ...) @_glfwInputError(i32 noundef 65537, ptr noundef null) #12
  br label %14

4:                                                ; preds = %1
  %or.cond = fcmp ult double %0, 0.000000e+00
  %5 = fcmp ogt double %0, 0x42112E0BE8240000
  %or.cond3 = or i1 %or.cond, %5
  br i1 %or.cond3, label %6, label %7

6:                                                ; preds = %4
  tail call void (i32, ptr, ...) @_glfwInputError(i32 noundef 65540, ptr noundef nonnull @.str.405, double noundef %0) #12
  br label %14

7:                                                ; preds = %4
  %8 = tail call i64 @_glfwPlatformGetTimerValue() #12
  %9 = tail call i64 @_glfwPlatformGetTimerFrequency() #12
  %10 = uitofp i64 %9 to double
  %11 = fmul double %0, %10
  %12 = fptoui double %11 to i64
  %13 = sub i64 %8, %12
  store i64 %13, ptr getelementptr inbounds nuw (i8, ptr @_glfw, i64 133472), align 8, !tbaa !205
  br label %14

14:                                               ; preds = %7, %6, %3
  ret void
}